target datalayout = "e-m:e-p270:32:32-p271:32:32-p272:64:64-i64:64-i128:128-f80:128-n8:16:32:64-S128"
target triple = "x86_64-pc-linux-gnu"

%struct.Vec_Int_t_ = type { i32, i32, ptr }

@.str = private unnamed_addr constant [2 x i8] c"\0A\00", align 1
@.str.9 = private unnamed_addr constant [7 x i8] c"%6d : \00", align 1
@.str.10 = private unnamed_addr constant [5 x i8] c"%6d \00", align 1
@.str.11 = private unnamed_addr constant [8 x i8] c"   ->  \00", align 1
@.str.12 = private unnamed_addr constant [7 x i8] c"  (%d)\00", align 1

; Function Attrs: inlinehint nounwind uwtable
define internal i32 @Vec_IntEntry(ptr noundef %0, i32 noundef %1) #3 {
  %3 = alloca ptr, align 8
  %4 = alloca i32, align 4
  store ptr %0, ptr %3, align 8, !tbaa !27
  store i32 %1, ptr %4, align 4, !tbaa !3
  %5 = load ptr, ptr %3, align 8, !tbaa !27
  %6 = getelementptr inbounds nuw %struct.Vec_Int_t_, ptr %5, i32 0, i32 2
  %7 = load ptr, ptr %6, align 8, !tbaa !35
  %8 = load i32, ptr %4, align 4, !tbaa !3
  %9 = sext i32 %8 to i64
  %10 = getelementptr inbounds i32, ptr %7, i64 %9
  %11 = load i32, ptr %10, align 4, !tbaa !3
  ret i32 %11
}

; Function Attrs: inlinehint nounwind uwtable
define internal i32 @Vec_IntSize(ptr noundef %0) #3 {
  %2 = alloca ptr, align 8
  store ptr %0, ptr %2, align 8, !tbaa !27
  %3 = load ptr, ptr %2, align 8, !tbaa !27
  %4 = getelementptr inbounds nuw %struct.Vec_Int_t_, ptr %3, i32 0, i32 1
  %5 = load i32, ptr %4, align 4, !tbaa !38
  ret i32 %5
}

; Function Attrs: nounwind uwtable
define void @Ree_ManPrintAdders(ptr noundef %0, i32 noundef %1) #0 {
  %3 = alloca ptr, align 8
  %4 = alloca i32, align 4
  %5 = alloca i32, align 4
  store ptr %0, ptr %3, align 8, !tbaa !27
  store i32 %1, ptr %4, align 4, !tbaa !3
  call void @llvm.lifetime.start.p0(i64 4, ptr %5) #12
  store i32 0, ptr %5, align 4, !tbaa !3
  br label %6

6:                                                ; preds = %57, %2
  %7 = load i32, ptr %5, align 4, !tbaa !3
  %8 = mul nsw i32 6, %7
  %9 = load ptr, ptr %3, align 8, !tbaa !27
  %10 = call i32 @Vec_IntSize(ptr noundef %9)
  %11 = icmp slt i32 %8, %10
  br i1 %11, label %12, label %60

12:                                               ; preds = %6
  %13 = load i32, ptr %4, align 4, !tbaa !3
  %14 = icmp ne i32 %13, 0
  br i1 %14, label %16, label %15

15:                                               ; preds = %12
  br label %57

16:                                               ; preds = %12
  %17 = load i32, ptr %5, align 4, !tbaa !3
  %18 = call i32 (ptr, ...) @printf(ptr noundef @.str.9, i32 noundef %17)
  %19 = load ptr, ptr %3, align 8, !tbaa !27
  %20 = load i32, ptr %5, align 4, !tbaa !3
  %21 = mul nsw i32 6, %20
  %22 = add nsw i32 %21, 0
  %23 = call i32 @Vec_IntEntry(ptr noundef %19, i32 noundef %22)
  %24 = call i32 (ptr, ...) @printf(ptr noundef @.str.10, i32 noundef %23)
  %25 = load ptr, ptr %3, align 8, !tbaa !27
  %26 = load i32, ptr %5, align 4, !tbaa !3
  %27 = mul nsw i32 6, %26
  %28 = add nsw i32 %27, 1
  %29 = call i32 @Vec_IntEntry(ptr noundef %25, i32 noundef %28)
  %30 = call i32 (ptr, ...) @printf(ptr noundef @.str.10, i32 noundef %29)
  %31 = load ptr, ptr %3, align 8, !tbaa !27
  %32 = load i32, ptr %5, align 4, !tbaa !3
  %33 = mul nsw i32 6, %32
  %34 = add nsw i32 %33, 2
  %35 = call i32 @Vec_IntEntry(ptr noundef %31, i32 noundef %34)
  %36 = call i32 (ptr, ...) @printf(ptr noundef @.str.10, i32 noundef %35)
  %37 = call i32 (ptr, ...) @printf(ptr noundef @.str.11)
  %38 = load ptr, ptr %3, align 8, !tbaa !27
  %39 = load i32, ptr %5, align 4, !tbaa !3
  %40 = mul nsw i32 6, %39
  %41 = add nsw i32 %40, 3
  %42 = call i32 @Vec_IntEntry(ptr noundef %38, i32 noundef %41)
  %43 = call i32 (ptr, ...) @printf(ptr noundef @.str.10, i32 noundef %42)
  %44 = load ptr, ptr %3, align 8, !tbaa !27
  %45 = load i32, ptr %5, align 4, !tbaa !3
  %46 = mul nsw i32 6, %45
  %47 = add nsw i32 %46, 4
  %48 = call i32 @Vec_IntEntry(ptr noundef %44, i32 noundef %47)
  %49 = call i32 (ptr, ...) @printf(ptr noundef @.str.10, i32 noundef %48)
  %50 = load ptr, ptr %3, align 8, !tbaa !27
  %51 = load i32, ptr %5, align 4, !tbaa !3
  %52 = mul nsw i32 6, %51
  %53 = add nsw i32 %52, 5
  %54 = call i32 @Vec_IntEntry(ptr noundef %50, i32 noundef %53)
  %55 = call i32 (ptr, ...) @printf(ptr noundef @.str.12, i32 noundef %54)
  %56 = call i32 (ptr, ...) @printf(ptr noundef @.str)
  br label %57

57:                                               ; preds = %16, %15
  %58 = load i32, ptr %5, align 4, !tbaa !3
  %59 = add nsw i32 %58, 1
  store i32 %59, ptr %5, align 4, !tbaa !3
  br label %6, !llvm.loop !103

60:                                               ; preds = %6
  call void @llvm.lifetime.end.p0(i64 4, ptr %5) #12
  ret void
}