; Function Attrs: nofree nounwind uwtable
define void @Ree_ManPrintAdders(ptr noundef readonly captures(none) %0, i32 noundef %1) local_unnamed_addr #0 {
  %3 = getelementptr i8, ptr %0, i64 4
  %.val23 = load i32, ptr %3, align 4, !tbaa !26
  %4 = icmp sgt i32 %.val23, 0
  br i1 %4, label %.lr.ph, label %._crit_edge

.lr.ph:                                           ; preds = %2
  %.not = icmp eq i32 %1, 0
  %5 = getelementptr i8, ptr %0, i64 8
  br i1 %.not, label %._crit_edge, label %.lr.ph.split

.lr.ph.split:                                     ; preds = %.lr.ph, %.lr.ph.split
  %indvars.iv = phi i64 [ %indvars.iv.next, %.lr.ph.split ], [ 0, %.lr.ph ]
  %6 = phi i32 [ %36, %.lr.ph.split ], [ 0, %.lr.ph ]
  %7 = trunc nuw nsw i64 %indvars.iv to i32
  %8 = tail call i32 (ptr, ...) @printf(ptr noundef nonnull dereferenceable(1) @.str.9, i32 noundef %7)
  %.val22 = load ptr, ptr %5, align 8, !tbaa !24
  %9 = zext nneg i32 %6 to i64
  %10 = getelementptr inbounds nuw i32, ptr %.val22, i64 %9
  %11 = load i32, ptr %10, align 4, !tbaa !17
  %12 = tail call i32 (ptr, ...) @printf(ptr noundef nonnull dereferenceable(1) @.str.10, i32 noundef %11)
  %13 = or disjoint i32 %6, 1
  %.val21 = load ptr, ptr %5, align 8, !tbaa !24
  %14 = zext nneg i32 %13 to i64
  %15 = getelementptr inbounds nuw i32, ptr %.val21, i64 %14
  %16 = load i32, ptr %15, align 4, !tbaa !17
  %17 = tail call i32 (ptr, ...) @printf(ptr noundef nonnull dereferenceable(1) @.str.10, i32 noundef %16)
  %.val20 = load ptr, ptr %5, align 8, !tbaa !24
  %18 = getelementptr inbounds nuw i32, ptr %.val20, i64 %9
  %19 = getelementptr inbounds nuw i8, ptr %18, i64 8
  %20 = load i32, ptr %19, align 4, !tbaa !17
  %21 = tail call i32 (ptr, ...) @printf(ptr noundef nonnull dereferenceable(1) @.str.10, i32 noundef %20)
  %22 = tail call i32 (ptr, ...) @printf(ptr noundef nonnull dereferenceable(1) @.str.11)
  %.val19 = load ptr, ptr %5, align 8, !tbaa !24
  %23 = getelementptr inbounds nuw i32, ptr %.val19, i64 %9
  %24 = getelementptr inbounds nuw i8, ptr %23, i64 12
  %25 = load i32, ptr %24, align 4, !tbaa !17
  %26 = tail call i32 (ptr, ...) @printf(ptr noundef nonnull dereferenceable(1) @.str.10, i32 noundef %25)
  %.val18 = load ptr, ptr %5, align 8, !tbaa !24
  %27 = getelementptr inbounds nuw i32, ptr %.val18, i64 %9
  %28 = getelementptr inbounds nuw i8, ptr %27, i64 16
  %29 = load i32, ptr %28, align 4, !tbaa !17
  %30 = tail call i32 (ptr, ...) @printf(ptr noundef nonnull dereferenceable(1) @.str.10, i32 noundef %29)
  %.val17 = load ptr, ptr %5, align 8, !tbaa !24
  %31 = getelementptr inbounds nuw i32, ptr %.val17, i64 %9
  %32 = getelementptr inbounds nuw i8, ptr %31, i64 20
  %33 = load i32, ptr %32, align 4, !tbaa !17
  %34 = tail call i32 (ptr, ...) @printf(ptr noundef nonnull dereferenceable(1) @.str.12, i32 noundef %33)
  %putchar = tail call i32 @putchar(i32 10)
  %indvars.iv.next = add nuw nsw i64 %indvars.iv, 1
  %.val = load i32, ptr %3, align 4, !tbaa !26
  %35 = trunc i64 %indvars.iv.next to i32
  %36 = mul i32 %35, 6
  %37 = icmp slt i32 %36, %.val
  br i1 %37, label %.lr.ph.split, label %._crit_edge, !llvm.loop !96

._crit_edge:                                      ; preds = %.lr.ph.split, %.lr.ph, %2
  ret void
}